target datalayout = "e-m:e-p270:32:32-p271:32:32-p272:64:64-i64:64-i128:128-f80:128-n8:16:32:64-S128"
target triple = "x86_64-pc-linux-gnu"

%struct.AttrMap = type { ptr, i32 }

; Function Attrs: nounwind uwtable
define dso_local ptr @make_attrmap(i32 noundef %0) #0 {
  %2 = alloca i32, align 4
  %3 = alloca ptr, align 8
  store i32 %0, ptr %2, align 4
  call void @llvm.lifetime.start.p0(i64 8, ptr %3) #6
  %4 = call ptr @palloc0(i64 noundef 16)
  store ptr %4, ptr %3, align 8
  %5 = load i32, ptr %2, align 4
  %6 = load ptr, ptr %3, align 8
  %7 = getelementptr inbounds nuw %struct.AttrMap, ptr %6, i32 0, i32 1
  store i32 %5, ptr %7, align 8
  %8 = load i32, ptr %2, align 4
  %9 = sext i32 %8 to i64
  %10 = mul i64 2, %9
  %11 = call ptr @palloc0(i64 noundef %10)
  %12 = load ptr, ptr %3, align 8
  %13 = getelementptr inbounds nuw %struct.AttrMap, ptr %12, i32 0, i32 0
  store ptr %11, ptr %13, align 8
  %14 = load ptr, ptr %3, align 8
  call void @llvm.lifetime.end.p0(i64 8, ptr %3) #6
  ret ptr %14
}