; Function Attrs: nounwind uwtable
define dso_local ptr @make_attrmap(i32 noundef %0) local_unnamed_addr #0 {
  %2 = tail call ptr @palloc0(i64 noundef 16) #5
  %3 = getelementptr inbounds nuw i8, ptr %2, i64 8
  store i32 %0, ptr %3, align 8
  %4 = sext i32 %0 to i64
  %5 = shl nsw i64 %4, 1
  %6 = tail call ptr @palloc0(i64 noundef %5) #5
  store ptr %6, ptr %2, align 8
  ret ptr %2
}